ccopy_reg
_reconstructor
p0
(cnetworkx.classes.digraph
DiGraph
p1
c__builtin__
object
p2
Ntp3
Rp4
(dp5
S'node'
p6
(dp7
I0
(dp8
sI1
(dp9
sI2
(dp10
sI3
(dp11
sI4
(dp12
sI5
(dp13
sI6
(dp14
sI7
(dp15
sI8
(dp16
sI9
(dp17
sI10
(dp18
sI11
(dp19
sI12
(dp20
sI13
(dp21
sI14
(dp22
sI15
(dp23
sI16
(dp24
sI17
(dp25
sI18
(dp26
sI19
(dp27
sI20
(dp28
sI21
(dp29
sI22
(dp30
sI23
(dp31
sI24
(dp32
sI25
(dp33
sI26
(dp34
sI27
(dp35
sI28
(dp36
sI29
(dp37
sI30
(dp38
sI31
(dp39
sI32
(dp40
sI33
(dp41
sI34
(dp42
sI35
(dp43
sI36
(dp44
sI37
(dp45
sI38
(dp46
sI39
(dp47
sI40
(dp48
sI41
(dp49
sI42
(dp50
sI43
(dp51
sI44
(dp52
sI45
(dp53
sI46
(dp54
sI47
(dp55
sI48
(dp56
sI49
(dp57
sI50
(dp58
sI51
(dp59
sI52
(dp60
sI53
(dp61
sI54
(dp62
sI55
(dp63
sI56
(dp64
sI57
(dp65
sI58
(dp66
sI59
(dp67
sI60
(dp68
ssS'node_dict_factory'
p69
c__builtin__
dict
p70
sS'edge_attr_dict_factory'
p71
g70
sS'succ'
p72
(dp73
I0
(dp74
I4
(dp75
ssI1
(dp76
I5
(dp77
ssI2
(dp78
I6
(dp79
ssI3
(dp80
I7
(dp81
ssI4
(dp82
I8
(dp83
sI9
(dp84
ssI5
(dp85
I10
(dp86
sI11
(dp87
ssI6
(dp88
I8
(dp89
sI9
(dp90
ssI7
(dp91
I10
(dp92
sI11
(dp93
ssI8
(dp94
I12
(dp95
sI13
(dp96
ssI9
(dp97
I14
(dp98
sI15
(dp99
ssI10
(dp100
I12
(dp101
sI13
(dp102
ssI11
(dp103
I14
(dp104
sI15
(dp105
ssI12
(dp106
I16
(dp107
sI17
(dp108
ssI13
(dp109
I18
(dp110
sI19
(dp111
ssI14
(dp112
I16
(dp113
sI17
(dp114
ssI15
(dp115
I18
(dp116
sI19
(dp117
ssI16
(dp118
I20
(dp119
sI21
(dp120
ssI17
(dp121
I22
(dp122
sI23
(dp123
ssI18
(dp124
I20
(dp125
sI21
(dp126
ssI19
(dp127
I22
(dp128
sI23
(dp129
ssI20
(dp130
I24
(dp131
sI25
(dp132
ssI21
(dp133
I26
(dp134
sI27
(dp135
ssI22
(dp136
I24
(dp137
sI25
(dp138
ssI23
(dp139
I26
(dp140
sI27
(dp141
ssI24
(dp142
I28
(dp143
sI29
(dp144
ssI25
(dp145
I30
(dp146
sI31
(dp147
ssI26
(dp148
I28
(dp149
sI29
(dp150
ssI27
(dp151
I30
(dp152
sI31
(dp153
ssI28
(dp154
I32
(dp155
sI33
(dp156
ssI29
(dp157
I34
(dp158
sI35
(dp159
ssI30
(dp160
I32
(dp161
sI33
(dp162
ssI31
(dp163
I34
(dp164
sI35
(dp165
ssI32
(dp166
I36
(dp167
sI37
(dp168
ssI33
(dp169
I38
(dp170
sI39
(dp171
ssI34
(dp172
I36
(dp173
sI37
(dp174
ssI35
(dp175
I38
(dp176
sI39
(dp177
ssI36
(dp178
I40
(dp179
sI41
(dp180
ssI37
(dp181
I42
(dp182
sI43
(dp183
ssI38
(dp184
I40
(dp185
sI41
(dp186
ssI39
(dp187
I42
(dp188
sI43
(dp189
ssI40
(dp190
I44
(dp191
sI45
(dp192
ssI41
(dp193
I46
(dp194
sI47
(dp195
ssI42
(dp196
I44
(dp197
sI45
(dp198
ssI43
(dp199
I46
(dp200
sI47
(dp201
ssI44
(dp202
I48
(dp203
sI49
(dp204
ssI45
(dp205
I50
(dp206
sI51
(dp207
ssI46
(dp208
I48
(dp209
sI49
(dp210
ssI47
(dp211
I50
(dp212
sI51
(dp213
ssI48
(dp214
I52
(dp215
sI53
(dp216
ssI49
(dp217
I54
(dp218
sI55
(dp219
ssI50
(dp220
I52
(dp221
sI53
(dp222
ssI51
(dp223
I54
(dp224
sI55
(dp225
ssI52
(dp226
I56
(dp227
sI57
(dp228
ssI53
(dp229
I58
(dp230
sI59
(dp231
ssI54
(dp232
I56
(dp233
sI57
(dp234
ssI55
(dp235
I58
(dp236
sI59
(dp237
ssI56
(dp238
I60
(dp239
ssI57
(dp240
I60
(dp241
ssI58
(dp242
I60
(dp243
ssI59
(dp244
I60
(dp245
ssI60
(dp246
ssS'edge'
p247
g73
sS'graph'
p248
(dp249
sS'adjlist_dict_factory'
p250
g70
sS'adj'
p251
g73
sS'pred'
p252
(dp253
I0
(dp254
sI1
(dp255
sI2
(dp256
sI3
(dp257
sI4
(dp258
I0
g75
ssI5
(dp259
I1
g77
ssI6
(dp260
I2
g79
ssI7
(dp261
I3
g81
ssI8
(dp262
I4
g83
sI6
g89
ssI9
(dp263
I4
g84
sI6
g90
ssI10
(dp264
I5
g86
sI7
g92
ssI11
(dp265
I5
g87
sI7
g93
ssI12
(dp266
I8
g95
sI10
g101
ssI13
(dp267
I8
g96
sI10
g102
ssI14
(dp268
I9
g98
sI11
g104
ssI15
(dp269
I9
g99
sI11
g105
ssI16
(dp270
I12
g107
sI14
g113
ssI17
(dp271
I12
g108
sI14
g114
ssI18
(dp272
I13
g110
sI15
g116
ssI19
(dp273
I13
g111
sI15
g117
ssI20
(dp274
I16
g119
sI18
g125
ssI21
(dp275
I16
g120
sI18
g126
ssI22
(dp276
I17
g122
sI19
g128
ssI23
(dp277
I17
g123
sI19
g129
ssI24
(dp278
I20
g131
sI22
g137
ssI25
(dp279
I20
g132
sI22
g138
ssI26
(dp280
I21
g134
sI23
g140
ssI27
(dp281
I21
g135
sI23
g141
ssI28
(dp282
I24
g143
sI26
g149
ssI29
(dp283
I24
g144
sI26
g150
ssI30
(dp284
I25
g146
sI27
g152
ssI31
(dp285
I25
g147
sI27
g153
ssI32
(dp286
I28
g155
sI30
g161
ssI33
(dp287
I28
g156
sI30
g162
ssI34
(dp288
I29
g158
sI31
g164
ssI35
(dp289
I29
g159
sI31
g165
ssI36
(dp290
I32
g167
sI34
g173
ssI37
(dp291
I32
g168
sI34
g174
ssI38
(dp292
I33
g170
sI35
g176
ssI39
(dp293
I33
g171
sI35
g177
ssI40
(dp294
I36
g179
sI38
g185
ssI41
(dp295
I36
g180
sI38
g186
ssI42
(dp296
I37
g182
sI39
g188
ssI43
(dp297
I37
g183
sI39
g189
ssI44
(dp298
I40
g191
sI42
g197
ssI45
(dp299
I40
g192
sI42
g198
ssI46
(dp300
I41
g194
sI43
g200
ssI47
(dp301
I41
g195
sI43
g201
ssI48
(dp302
I44
g203
sI46
g209
ssI49
(dp303
I44
g204
sI46
g210
ssI50
(dp304
I45
g206
sI47
g212
ssI51
(dp305
I45
g207
sI47
g213
ssI52
(dp306
I48
g215
sI50
g221
ssI53
(dp307
I48
g216
sI50
g222
ssI54
(dp308
I49
g218
sI51
g224
ssI55
(dp309
I49
g219
sI51
g225
ssI56
(dp310
I52
g227
sI54
g233
ssI57
(dp311
I52
g228
sI54
g234
ssI58
(dp312
I53
g230
sI55
g236
ssI59
(dp313
I53
g231
sI55
g237
ssI60
(dp314
I56
g239
sI57
g241
sI58
g243
sI59
g245
sssb.