ccopy_reg
_reconstructor
p0
(cnetworkx.classes.digraph
DiGraph
p1
c__builtin__
object
p2
Ntp3
Rp4
(dp5
S'node'
p6
(dp7
I0
(dp8
sI1
(dp9
sI2
(dp10
sI3
(dp11
ssS'graph'
p12
(dp13
sS'succ'
p14
(dp15
I0
(dp16
I1
(dp17
ssI1
(dp18
I2
(dp19
ssI2
(dp20
I3
(dp21
ssI3
(dp22
ssS'edge'
p23
g15
sS'pred'
p24
(dp25
I0
(dp26
sI1
(dp27
I0
g17
ssI2
(dp28
I1
g19
ssI3
(dp29
I2
g21
sssS'adj'
p30
g15
sb.