ccopy_reg
_reconstructor
p0
(cnetworkx.classes.digraph
DiGraph
p1
c__builtin__
object
p2
Ntp3
Rp4
(dp5
S'node'
p6
(dp7
I0
(dp8
sI1
(dp9
sI2
(dp10
sI3
(dp11
sI4
(dp12
sI5
(dp13
sI6
(dp14
sI7
(dp15
sI8
(dp16
sI9
(dp17
sI10
(dp18
sI11
(dp19
sI12
(dp20
sI13
(dp21
sI14
(dp22
sI15
(dp23
sI16
(dp24
sI17
(dp25
sI18
(dp26
sI19
(dp27
sI20
(dp28
sI21
(dp29
sI22
(dp30
sI23
(dp31
sI24
(dp32
sI25
(dp33
sI26
(dp34
ssS'graph'
p35
(dp36
sS'succ'
p37
(dp38
I0
(dp39
I3
(dp40
ssI1
(dp41
I4
(dp42
ssI2
(dp43
I5
(dp44
ssI3
(dp45
I6
(dp46
sI7
(dp47
ssI4
(dp48
I6
(dp49
sI7
(dp50
ssI5
(dp51
I6
(dp52
sI7
(dp53
ssI6
(dp54
I8
(dp55
sI9
(dp56
ssI7
(dp57
I10
(dp58
sI11
(dp59
ssI8
(dp60
I12
(dp61
sI13
(dp62
ssI9
(dp63
I14
(dp64
sI15
(dp65
ssI10
(dp66
I12
(dp67
sI13
(dp68
ssI11
(dp69
I14
(dp70
sI15
(dp71
ssI12
(dp72
I16
(dp73
sI17
(dp74
sI18
(dp75
ssI13
(dp76
I19
(dp77
sI20
(dp78
sI21
(dp79
ssI14
(dp80
I16
(dp81
sI17
(dp82
sI18
(dp83
ssI15
(dp84
I19
(dp85
sI20
(dp86
sI21
(dp87
ssI16
(dp88
I22
(dp89
ssI17
(dp90
I23
(dp91
ssI18
(dp92
I24
(dp93
ssI19
(dp94
I22
(dp95
ssI20
(dp96
I23
(dp97
ssI21
(dp98
I24
(dp99
ssI22
(dp100
I25
(dp101
ssI23
(dp102
I25
(dp103
ssI24
(dp104
I25
(dp105
ssI25
(dp106
I26
(dp107
ssI26
(dp108
ssS'edge'
p109
g38
sS'pred'
p110
(dp111
I0
(dp112
sI1
(dp113
sI2
(dp114
sI3
(dp115
I0
g40
ssI4
(dp116
I1
g42
ssI5
(dp117
I2
g44
ssI6
(dp118
I3
g46
sI4
g49
sI5
g52
ssI7
(dp119
I3
g47
sI4
g50
sI5
g53
ssI8
(dp120
I6
g55
ssI9
(dp121
I6
g56
ssI10
(dp122
I7
g58
ssI11
(dp123
I7
g59
ssI12
(dp124
I8
g61
sI10
g67
ssI13
(dp125
I8
g62
sI10
g68
ssI14
(dp126
I9
g64
sI11
g70
ssI15
(dp127
I9
g65
sI11
g71
ssI16
(dp128
I12
g73
sI14
g81
ssI17
(dp129
I12
g74
sI14
g82
ssI18
(dp130
I12
g75
sI14
g83
ssI19
(dp131
I13
g77
sI15
g85
ssI20
(dp132
I13
g78
sI15
g86
ssI21
(dp133
I13
g79
sI15
g87
ssI22
(dp134
I16
g89
sI19
g95
ssI23
(dp135
I17
g91
sI20
g97
ssI24
(dp136
I18
g93
sI21
g99
ssI25
(dp137
I24
g105
sI22
g101
sI23
g103
ssI26
(dp138
I25
g107
sssS'adj'
p139
g38
sb.