ccopy_reg
_reconstructor
p0
(cnetworkx.classes.digraph
DiGraph
p1
c__builtin__
object
p2
Ntp3
Rp4
(dp5
S'node'
p6
(dp7
I0
(dp8
sI1
(dp9
sI2
(dp10
sI3
(dp11
sI4
(dp12
sI5
(dp13
sI6
(dp14
sI7
(dp15
sI8
(dp16
sI9
(dp17
sI10
(dp18
sI11
(dp19
sI12
(dp20
sI13
(dp21
sI14
(dp22
sI15
(dp23
sI16
(dp24
sI17
(dp25
sI18
(dp26
sI19
(dp27
sI20
(dp28
sI21
(dp29
sI22
(dp30
sI23
(dp31
sI24
(dp32
sI25
(dp33
sI26
(dp34
sI27
(dp35
sI28
(dp36
sI29
(dp37
sI30
(dp38
sI31
(dp39
sI32
(dp40
sI33
(dp41
sI34
(dp42
sI35
(dp43
sI36
(dp44
sI37
(dp45
sI38
(dp46
sI39
(dp47
sI40
(dp48
ssS'node_dict_factory'
p49
c__builtin__
dict
p50
sS'edge_attr_dict_factory'
p51
g50
sS'succ'
p52
(dp53
I0
(dp54
I4
(dp55
ssI1
(dp56
I5
(dp57
ssI2
(dp58
I6
(dp59
ssI3
(dp60
I7
(dp61
ssI4
(dp62
I8
(dp63
sI9
(dp64
ssI5
(dp65
I10
(dp66
sI11
(dp67
ssI6
(dp68
I8
(dp69
sI9
(dp70
ssI7
(dp71
I10
(dp72
sI11
(dp73
ssI8
(dp74
I12
(dp75
sI13
(dp76
ssI9
(dp77
I14
(dp78
sI15
(dp79
ssI10
(dp80
I12
(dp81
sI13
(dp82
ssI11
(dp83
I14
(dp84
sI15
(dp85
ssI12
(dp86
I16
(dp87
sI17
(dp88
ssI13
(dp89
I18
(dp90
sI19
(dp91
ssI14
(dp92
I16
(dp93
sI17
(dp94
ssI15
(dp95
I18
(dp96
sI19
(dp97
ssI16
(dp98
I20
(dp99
sI21
(dp100
ssI17
(dp101
I22
(dp102
sI23
(dp103
ssI18
(dp104
I20
(dp105
sI21
(dp106
ssI19
(dp107
I22
(dp108
sI23
(dp109
ssI20
(dp110
I24
(dp111
sI25
(dp112
ssI21
(dp113
I26
(dp114
sI27
(dp115
ssI22
(dp116
I24
(dp117
sI25
(dp118
ssI23
(dp119
I26
(dp120
sI27
(dp121
ssI24
(dp122
I28
(dp123
sI29
(dp124
ssI25
(dp125
I30
(dp126
sI31
(dp127
ssI26
(dp128
I28
(dp129
sI29
(dp130
ssI27
(dp131
I30
(dp132
sI31
(dp133
ssI28
(dp134
I32
(dp135
sI33
(dp136
ssI29
(dp137
I34
(dp138
sI35
(dp139
ssI30
(dp140
I32
(dp141
sI33
(dp142
ssI31
(dp143
I34
(dp144
sI35
(dp145
ssI32
(dp146
I36
(dp147
sI37
(dp148
ssI33
(dp149
I38
(dp150
sI39
(dp151
ssI34
(dp152
I36
(dp153
sI37
(dp154
ssI35
(dp155
I38
(dp156
sI39
(dp157
ssI36
(dp158
I40
(dp159
ssI37
(dp160
I40
(dp161
ssI38
(dp162
I40
(dp163
ssI39
(dp164
I40
(dp165
ssI40
(dp166
ssS'edge'
p167
g53
sS'graph'
p168
(dp169
sS'adjlist_dict_factory'
p170
g50
sS'adj'
p171
g53
sS'pred'
p172
(dp173
I0
(dp174
sI1
(dp175
sI2
(dp176
sI3
(dp177
sI4
(dp178
I0
g55
ssI5
(dp179
I1
g57
ssI6
(dp180
I2
g59
ssI7
(dp181
I3
g61
ssI8
(dp182
I4
g63
sI6
g69
ssI9
(dp183
I4
g64
sI6
g70
ssI10
(dp184
I5
g66
sI7
g72
ssI11
(dp185
I5
g67
sI7
g73
ssI12
(dp186
I8
g75
sI10
g81
ssI13
(dp187
I8
g76
sI10
g82
ssI14
(dp188
I9
g78
sI11
g84
ssI15
(dp189
I9
g79
sI11
g85
ssI16
(dp190
I12
g87
sI14
g93
ssI17
(dp191
I12
g88
sI14
g94
ssI18
(dp192
I13
g90
sI15
g96
ssI19
(dp193
I13
g91
sI15
g97
ssI20
(dp194
I16
g99
sI18
g105
ssI21
(dp195
I16
g100
sI18
g106
ssI22
(dp196
I17
g102
sI19
g108
ssI23
(dp197
I17
g103
sI19
g109
ssI24
(dp198
I20
g111
sI22
g117
ssI25
(dp199
I20
g112
sI22
g118
ssI26
(dp200
I21
g114
sI23
g120
ssI27
(dp201
I21
g115
sI23
g121
ssI28
(dp202
I24
g123
sI26
g129
ssI29
(dp203
I24
g124
sI26
g130
ssI30
(dp204
I25
g126
sI27
g132
ssI31
(dp205
I25
g127
sI27
g133
ssI32
(dp206
I28
g135
sI30
g141
ssI33
(dp207
I28
g136
sI30
g142
ssI34
(dp208
I29
g138
sI31
g144
ssI35
(dp209
I29
g139
sI31
g145
ssI36
(dp210
I32
g147
sI34
g153
ssI37
(dp211
I32
g148
sI34
g154
ssI38
(dp212
I33
g150
sI35
g156
ssI39
(dp213
I33
g151
sI35
g157
ssI40
(dp214
I36
g159
sI37
g161
sI38
g163
sI39
g165
sssb.