ccopy_reg
_reconstructor
p0
(cnetworkx.classes.digraph
DiGraph
p1
c__builtin__
object
p2
Ntp3
Rp4
(dp5
S'node'
p6
(dp7
I0
(dp8
sI1
(dp9
sI2
(dp10
sI3
(dp11
sI4
(dp12
sI5
(dp13
sI6
(dp14
sI7
(dp15
sI8
(dp16
sI9
(dp17
sI10
(dp18
sI11
(dp19
sI12
(dp20
sI13
(dp21
sI14
(dp22
sI15
(dp23
sI16
(dp24
sI17
(dp25
sI18
(dp26
sI19
(dp27
sI20
(dp28
sI21
(dp29
sI22
(dp30
sI23
(dp31
sI24
(dp32
sI25
(dp33
sI26
(dp34
sI27
(dp35
sI28
(dp36
sI29
(dp37
ssS'graph'
p38
(dp39
sS'succ'
p40
(dp41
I0
(dp42
I6
(dp43
ssI1
(dp44
I7
(dp45
ssI2
(dp46
I8
(dp47
ssI3
(dp48
I9
(dp49
ssI4
(dp50
I10
(dp51
ssI5
(dp52
I11
(dp53
ssI6
(dp54
I12
(dp55
sI13
(dp56
ssI7
(dp57
I14
(dp58
sI15
(dp59
ssI8
(dp60
I12
(dp61
sI13
(dp62
ssI9
(dp63
I14
(dp64
sI15
(dp65
ssI10
(dp66
I12
(dp67
sI13
(dp68
ssI11
(dp69
I14
(dp70
sI15
(dp71
ssI12
(dp72
I16
(dp73
ssI13
(dp74
I17
(dp75
ssI14
(dp76
I16
(dp77
ssI15
(dp78
I17
(dp79
ssI16
(dp80
I18
(dp81
ssI17
(dp82
I18
(dp83
ssI18
(dp84
I19
(dp85
sI20
(dp86
ssI19
(dp87
I21
(dp88
ssI20
(dp89
I22
(dp90
ssI21
(dp91
I24
(dp92
sI23
(dp93
ssI22
(dp94
I24
(dp95
sI23
(dp96
ssI23
(dp97
I25
(dp98
sI26
(dp99
ssI24
(dp100
I27
(dp101
sI28
(dp102
ssI25
(dp103
I29
(dp104
ssI26
(dp105
I29
(dp106
ssI27
(dp107
I29
(dp108
ssI28
(dp109
I29
(dp110
ssI29
(dp111
ssS'edge'
p112
g41
sS'pred'
p113
(dp114
I0
(dp115
sI1
(dp116
sI2
(dp117
sI3
(dp118
sI4
(dp119
sI5
(dp120
sI6
(dp121
I0
g43
ssI7
(dp122
I1
g45
ssI8
(dp123
I2
g47
ssI9
(dp124
I3
g49
ssI10
(dp125
I4
g51
ssI11
(dp126
I5
g53
ssI12
(dp127
I8
g61
sI10
g67
sI6
g55
ssI13
(dp128
I8
g62
sI10
g68
sI6
g56
ssI14
(dp129
I9
g64
sI11
g70
sI7
g58
ssI15
(dp130
I9
g65
sI11
g71
sI7
g59
ssI16
(dp131
I12
g73
sI14
g77
ssI17
(dp132
I13
g75
sI15
g79
ssI18
(dp133
I16
g81
sI17
g83
ssI19
(dp134
I18
g85
ssI20
(dp135
I18
g86
ssI21
(dp136
I19
g88
ssI22
(dp137
I20
g90
ssI23
(dp138
I21
g93
sI22
g96
ssI24
(dp139
I21
g92
sI22
g95
ssI25
(dp140
I23
g98
ssI26
(dp141
I23
g99
ssI27
(dp142
I24
g101
ssI28
(dp143
I24
g102
ssI29
(dp144
I25
g104
sI26
g106
sI27
g108
sI28
g110
sssS'adj'
p145
g41
sb.