ccopy_reg
_reconstructor
p0
(cnetworkx.classes.digraph
DiGraph
p1
c__builtin__
object
p2
Ntp3
Rp4
(dp5
S'node'
p6
(dp7
I0
(dp8
sI1
(dp9
sI2
(dp10
sI3
(dp11
sI4
(dp12
sI5
(dp13
sI6
(dp14
sI7
(dp15
sI8
(dp16
sI9
(dp17
sI10
(dp18
sI11
(dp19
sI12
(dp20
sI13
(dp21
sI14
(dp22
sI15
(dp23
sI16
(dp24
sI17
(dp25
sI18
(dp26
sI19
(dp27
sI20
(dp28
sI21
(dp29
sI22
(dp30
sI23
(dp31
sI24
(dp32
ssS'node_dict_factory'
p33
c__builtin__
dict
p34
sS'edge_attr_dict_factory'
p35
g34
sS'succ'
p36
(dp37
I0
(dp38
I4
(dp39
ssI1
(dp40
I5
(dp41
ssI2
(dp42
I6
(dp43
ssI3
(dp44
I7
(dp45
ssI4
(dp46
I8
(dp47
sI9
(dp48
ssI5
(dp49
I10
(dp50
sI11
(dp51
ssI6
(dp52
I8
(dp53
sI9
(dp54
ssI7
(dp55
I10
(dp56
sI11
(dp57
ssI8
(dp58
I12
(dp59
sI13
(dp60
ssI9
(dp61
I14
(dp62
sI15
(dp63
ssI10
(dp64
I12
(dp65
sI13
(dp66
ssI11
(dp67
I14
(dp68
sI15
(dp69
ssI12
(dp70
I16
(dp71
sI17
(dp72
ssI13
(dp73
I18
(dp74
sI19
(dp75
ssI14
(dp76
I16
(dp77
sI17
(dp78
ssI15
(dp79
I18
(dp80
sI19
(dp81
ssI16
(dp82
I20
(dp83
sI21
(dp84
ssI17
(dp85
I22
(dp86
sI23
(dp87
ssI18
(dp88
I20
(dp89
sI21
(dp90
ssI19
(dp91
I22
(dp92
sI23
(dp93
ssI20
(dp94
I24
(dp95
ssI21
(dp96
I24
(dp97
ssI22
(dp98
I24
(dp99
ssI23
(dp100
I24
(dp101
ssI24
(dp102
ssS'edge'
p103
g37
sS'graph'
p104
(dp105
sS'adjlist_dict_factory'
p106
g34
sS'adj'
p107
g37
sS'pred'
p108
(dp109
I0
(dp110
sI1
(dp111
sI2
(dp112
sI3
(dp113
sI4
(dp114
I0
g39
ssI5
(dp115
I1
g41
ssI6
(dp116
I2
g43
ssI7
(dp117
I3
g45
ssI8
(dp118
I4
g47
sI6
g53
ssI9
(dp119
I4
g48
sI6
g54
ssI10
(dp120
I5
g50
sI7
g56
ssI11
(dp121
I5
g51
sI7
g57
ssI12
(dp122
I8
g59
sI10
g65
ssI13
(dp123
I8
g60
sI10
g66
ssI14
(dp124
I9
g62
sI11
g68
ssI15
(dp125
I9
g63
sI11
g69
ssI16
(dp126
I12
g71
sI14
g77
ssI17
(dp127
I12
g72
sI14
g78
ssI18
(dp128
I13
g74
sI15
g80
ssI19
(dp129
I13
g75
sI15
g81
ssI20
(dp130
I16
g83
sI18
g89
ssI21
(dp131
I16
g84
sI18
g90
ssI22
(dp132
I17
g86
sI19
g92
ssI23
(dp133
I17
g87
sI19
g93
ssI24
(dp134
I20
g95
sI21
g97
sI22
g99
sI23
g101
sssb.