ccopy_reg
_reconstructor
p0
(cnetworkx.classes.digraph
DiGraph
p1
c__builtin__
object
p2
Ntp3
Rp4
(dp5
S'node'
p6
(dp7
I0
(dp8
sI1
(dp9
sI2
(dp10
sI3
(dp11
sI4
(dp12
sI5
(dp13
sI6
(dp14
sI7
(dp15
sI8
(dp16
sI9
(dp17
sI10
(dp18
sI11
(dp19
sI12
(dp20
sI13
(dp21
sI14
(dp22
sI15
(dp23
sI16
(dp24
sI17
(dp25
sI18
(dp26
sI19
(dp27
sI20
(dp28
sI21
(dp29
sI22
(dp30
sI23
(dp31
sI24
(dp32
sI25
(dp33
sI26
(dp34
sI27
(dp35
sI28
(dp36
sI29
(dp37
sI30
(dp38
sI31
(dp39
sI32
(dp40
sI33
(dp41
sI34
(dp42
sI35
(dp43
sI36
(dp44
sI37
(dp45
sI38
(dp46
sI39
(dp47
sI40
(dp48
sI41
(dp49
sI42
(dp50
sI43
(dp51
sI44
(dp52
sI45
(dp53
sI46
(dp54
sI47
(dp55
sI48
(dp56
ssS'node_dict_factory'
p57
c__builtin__
dict
p58
sS'edge_attr_dict_factory'
p59
g58
sS'succ'
p60
(dp61
I0
(dp62
I6
(dp63
ssI1
(dp64
I7
(dp65
ssI2
(dp66
I8
(dp67
ssI3
(dp68
I9
(dp69
ssI4
(dp70
I10
(dp71
ssI5
(dp72
I11
(dp73
ssI6
(dp74
I12
(dp75
sI13
(dp76
ssI7
(dp77
I14
(dp78
sI15
(dp79
ssI8
(dp80
I12
(dp81
sI13
(dp82
ssI9
(dp83
I14
(dp84
sI15
(dp85
ssI10
(dp86
I12
(dp87
sI13
(dp88
ssI11
(dp89
I14
(dp90
sI15
(dp91
ssI12
(dp92
I16
(dp93
ssI13
(dp94
I17
(dp95
ssI14
(dp96
I16
(dp97
ssI15
(dp98
I17
(dp99
ssI16
(dp100
I18
(dp101
ssI17
(dp102
I18
(dp103
ssI18
(dp104
I19
(dp105
sI20
(dp106
ssI19
(dp107
I21
(dp108
ssI20
(dp109
I22
(dp110
ssI21
(dp111
I24
(dp112
sI23
(dp113
ssI22
(dp114
I24
(dp115
sI23
(dp116
ssI23
(dp117
I25
(dp118
sI26
(dp119
ssI24
(dp120
I27
(dp121
sI28
(dp122
ssI25
(dp123
I29
(dp124
ssI26
(dp125
I30
(dp126
ssI27
(dp127
I29
(dp128
ssI28
(dp129
I30
(dp130
ssI29
(dp131
I32
(dp132
sI31
(dp133
ssI30
(dp134
I32
(dp135
sI31
(dp136
ssI31
(dp137
I33
(dp138
sI34
(dp139
ssI32
(dp140
I35
(dp141
sI36
(dp142
ssI33
(dp143
I37
(dp144
sI38
(dp145
sI39
(dp146
ssI34
(dp147
I40
(dp148
sI41
(dp149
sI42
(dp150
ssI35
(dp151
I37
(dp152
sI38
(dp153
sI39
(dp154
ssI36
(dp155
I40
(dp156
sI41
(dp157
sI42
(dp158
ssI37
(dp159
I43
(dp160
ssI38
(dp161
I44
(dp162
ssI39
(dp163
I45
(dp164
ssI40
(dp165
I43
(dp166
ssI41
(dp167
I44
(dp168
ssI42
(dp169
I45
(dp170
ssI43
(dp171
I46
(dp172
sI47
(dp173
ssI44
(dp174
I46
(dp175
sI47
(dp176
ssI45
(dp177
I46
(dp178
sI47
(dp179
ssI46
(dp180
I48
(dp181
ssI47
(dp182
I48
(dp183
ssI48
(dp184
ssS'edge'
p185
g61
sS'graph'
p186
(dp187
sS'adjlist_dict_factory'
p188
g58
sS'adj'
p189
g61
sS'pred'
p190
(dp191
I0
(dp192
sI1
(dp193
sI2
(dp194
sI3
(dp195
sI4
(dp196
sI5
(dp197
sI6
(dp198
I0
g63
ssI7
(dp199
I1
g65
ssI8
(dp200
I2
g67
ssI9
(dp201
I3
g69
ssI10
(dp202
I4
g71
ssI11
(dp203
I5
g73
ssI12
(dp204
I8
g81
sI10
g87
sI6
g75
ssI13
(dp205
I8
g82
sI10
g88
sI6
g76
ssI14
(dp206
I9
g84
sI11
g90
sI7
g78
ssI15
(dp207
I9
g85
sI11
g91
sI7
g79
ssI16
(dp208
I12
g93
sI14
g97
ssI17
(dp209
I13
g95
sI15
g99
ssI18
(dp210
I16
g101
sI17
g103
ssI19
(dp211
I18
g105
ssI20
(dp212
I18
g106
ssI21
(dp213
I19
g108
ssI22
(dp214
I20
g110
ssI23
(dp215
I21
g113
sI22
g116
ssI24
(dp216
I21
g112
sI22
g115
ssI25
(dp217
I23
g118
ssI26
(dp218
I23
g119
ssI27
(dp219
I24
g121
ssI28
(dp220
I24
g122
ssI29
(dp221
I25
g124
sI27
g128
ssI30
(dp222
I26
g126
sI28
g130
ssI31
(dp223
I29
g133
sI30
g136
ssI32
(dp224
I29
g132
sI30
g135
ssI33
(dp225
I31
g138
ssI34
(dp226
I31
g139
ssI35
(dp227
I32
g141
ssI36
(dp228
I32
g142
ssI37
(dp229
I33
g144
sI35
g152
ssI38
(dp230
I33
g145
sI35
g153
ssI39
(dp231
I33
g146
sI35
g154
ssI40
(dp232
I34
g148
sI36
g156
ssI41
(dp233
I34
g149
sI36
g157
ssI42
(dp234
I34
g150
sI36
g158
ssI43
(dp235
I40
g166
sI37
g160
ssI44
(dp236
I41
g168
sI38
g162
ssI45
(dp237
I42
g170
sI39
g164
ssI46
(dp238
I43
g172
sI44
g175
sI45
g178
ssI47
(dp239
I43
g173
sI44
g176
sI45
g179
ssI48
(dp240
I46
g181
sI47
g183
sssb.