ccopy_reg
_reconstructor
p0
(cnetworkx.classes.digraph
DiGraph
p1
c__builtin__
object
p2
Ntp3
Rp4
(dp5
S'node'
p6
(dp7
I0
(dp8
sI1
(dp9
sI2
(dp10
sI3
(dp11
sI4
(dp12
sI5
(dp13
sI6
(dp14
sI7
(dp15
sI8
(dp16
sI9
(dp17
sI10
(dp18
sI11
(dp19
sI12
(dp20
sI13
(dp21
sI14
(dp22
sI15
(dp23
sI16
(dp24
sI17
(dp25
sI18
(dp26
sI19
(dp27
sI20
(dp28
sI21
(dp29
sI22
(dp30
sI23
(dp31
sI24
(dp32
sI25
(dp33
ssS'graph'
p34
(dp35
sS'succ'
p36
(dp37
I0
(dp38
I3
(dp39
ssI1
(dp40
I4
(dp41
ssI2
(dp42
I5
(dp43
ssI3
(dp44
I6
(dp45
sI7
(dp46
ssI4
(dp47
I6
(dp48
sI7
(dp49
ssI5
(dp50
I6
(dp51
sI7
(dp52
ssI6
(dp53
I8
(dp54
sI9
(dp55
sI10
(dp56
ssI7
(dp57
I11
(dp58
sI12
(dp59
sI13
(dp60
ssI8
(dp61
I14
(dp62
ssI9
(dp63
I15
(dp64
ssI10
(dp65
I16
(dp66
ssI11
(dp67
I14
(dp68
ssI12
(dp69
I15
(dp70
ssI13
(dp71
I16
(dp72
ssI14
(dp73
I17
(dp74
sI18
(dp75
ssI15
(dp76
I17
(dp77
sI18
(dp78
ssI16
(dp79
I17
(dp80
sI18
(dp81
ssI17
(dp82
I19
(dp83
sI20
(dp84
sI21
(dp85
ssI18
(dp86
I24
(dp87
sI22
(dp88
sI23
(dp89
ssI19
(dp90
I25
(dp91
ssI20
(dp92
I25
(dp93
ssI21
(dp94
I25
(dp95
ssI22
(dp96
I25
(dp97
ssI23
(dp98
I25
(dp99
ssI24
(dp100
I25
(dp101
ssI25
(dp102
ssS'edge'
p103
g37
sS'pred'
p104
(dp105
I0
(dp106
sI1
(dp107
sI2
(dp108
sI3
(dp109
I0
g39
ssI4
(dp110
I1
g41
ssI5
(dp111
I2
g43
ssI6
(dp112
I3
g45
sI4
g48
sI5
g51
ssI7
(dp113
I3
g46
sI4
g49
sI5
g52
ssI8
(dp114
I6
g54
ssI9
(dp115
I6
g55
ssI10
(dp116
I6
g56
ssI11
(dp117
I7
g58
ssI12
(dp118
I7
g59
ssI13
(dp119
I7
g60
ssI14
(dp120
I8
g62
sI11
g68
ssI15
(dp121
I9
g64
sI12
g70
ssI16
(dp122
I10
g66
sI13
g72
ssI17
(dp123
I16
g80
sI14
g74
sI15
g77
ssI18
(dp124
I16
g81
sI14
g75
sI15
g78
ssI19
(dp125
I17
g83
ssI20
(dp126
I17
g84
ssI21
(dp127
I17
g85
ssI22
(dp128
I18
g88
ssI23
(dp129
I18
g89
ssI24
(dp130
I18
g87
ssI25
(dp131
I19
g91
sI20
g93
sI21
g95
sI22
g97
sI23
g99
sI24
g101
sssS'adj'
p132
g37
sb.