ccopy_reg
_reconstructor
p0
(cnetworkx.classes.digraph
DiGraph
p1
c__builtin__
object
p2
Ntp3
Rp4
(dp5
S'node'
p6
(dp7
I0
(dp8
sI1
(dp9
sI2
(dp10
sI3
(dp11
sI4
(dp12
sI5
(dp13
ssS'node_dict_factory'
p14
c__builtin__
dict
p15
sS'edge_attr_dict_factory'
p16
g15
sS'succ'
p17
(dp18
I0
(dp19
I1
(dp20
ssI1
(dp21
I2
(dp22
ssI2
(dp23
I3
(dp24
ssI3
(dp25
I4
(dp26
ssI4
(dp27
I5
(dp28
ssI5
(dp29
ssS'edge'
p30
g18
sS'graph'
p31
(dp32
sS'adjlist_dict_factory'
p33
g15
sS'adj'
p34
g18
sS'pred'
p35
(dp36
I0
(dp37
sI1
(dp38
I0
g20
ssI2
(dp39
I1
g22
ssI3
(dp40
I2
g24
ssI4
(dp41
I3
g26
ssI5
(dp42
I4
g28
sssb.