ccopy_reg
_reconstructor
p0
(cnetworkx.classes.digraph
DiGraph
p1
c__builtin__
object
p2
Ntp3
Rp4
(dp5
S'node'
p6
(dp7
I0
(dp8
sI1
(dp9
sI2
(dp10
sI3
(dp11
sI4
(dp12
sI5
(dp13
sI6
(dp14
sI7
(dp15
sI8
(dp16
sI9
(dp17
sI10
(dp18
sI11
(dp19
sI12
(dp20
sI13
(dp21
sI14
(dp22
sI15
(dp23
sI16
(dp24
sI17
(dp25
sI18
(dp26
sI19
(dp27
sI20
(dp28
ssS'node_dict_factory'
p29
c__builtin__
dict
p30
sS'edge_attr_dict_factory'
p31
g30
sS'succ'
p32
(dp33
I0
(dp34
I4
(dp35
ssI1
(dp36
I5
(dp37
ssI2
(dp38
I6
(dp39
ssI3
(dp40
I7
(dp41
ssI4
(dp42
I8
(dp43
sI9
(dp44
ssI5
(dp45
I10
(dp46
sI11
(dp47
ssI6
(dp48
I8
(dp49
sI9
(dp50
ssI7
(dp51
I10
(dp52
sI11
(dp53
ssI8
(dp54
I12
(dp55
sI13
(dp56
ssI9
(dp57
I14
(dp58
sI15
(dp59
ssI10
(dp60
I12
(dp61
sI13
(dp62
ssI11
(dp63
I14
(dp64
sI15
(dp65
ssI12
(dp66
I16
(dp67
sI17
(dp68
ssI13
(dp69
I18
(dp70
sI19
(dp71
ssI14
(dp72
I16
(dp73
sI17
(dp74
ssI15
(dp75
I18
(dp76
sI19
(dp77
ssI16
(dp78
I20
(dp79
ssI17
(dp80
I20
(dp81
ssI18
(dp82
I20
(dp83
ssI19
(dp84
I20
(dp85
ssI20
(dp86
ssS'edge'
p87
g33
sS'graph'
p88
(dp89
sS'adjlist_dict_factory'
p90
g30
sS'adj'
p91
g33
sS'pred'
p92
(dp93
I0
(dp94
sI1
(dp95
sI2
(dp96
sI3
(dp97
sI4
(dp98
I0
g35
ssI5
(dp99
I1
g37
ssI6
(dp100
I2
g39
ssI7
(dp101
I3
g41
ssI8
(dp102
I4
g43
sI6
g49
ssI9
(dp103
I4
g44
sI6
g50
ssI10
(dp104
I5
g46
sI7
g52
ssI11
(dp105
I5
g47
sI7
g53
ssI12
(dp106
I8
g55
sI10
g61
ssI13
(dp107
I8
g56
sI10
g62
ssI14
(dp108
I9
g58
sI11
g64
ssI15
(dp109
I9
g59
sI11
g65
ssI16
(dp110
I12
g67
sI14
g73
ssI17
(dp111
I12
g68
sI14
g74
ssI18
(dp112
I13
g70
sI15
g76
ssI19
(dp113
I13
g71
sI15
g77
ssI20
(dp114
I16
g79
sI17
g81
sI18
g83
sI19
g85
sssb.