ccopy_reg
_reconstructor
p0
(cnetworkx.classes.digraph
DiGraph
p1
c__builtin__
object
p2
Ntp3
Rp4
(dp5
S'node'
p6
(dp7
I0
(dp8
sI1
(dp9
sI2
(dp10
sI3
(dp11
sI4
(dp12
sI5
(dp13
sI6
(dp14
sI7
(dp15
sI8
(dp16
sI9
(dp17
sI10
(dp18
sI11
(dp19
sI12
(dp20
sI13
(dp21
sI14
(dp22
sI15
(dp23
sI16
(dp24
sI17
(dp25
sI18
(dp26
sI19
(dp27
sI20
(dp28
sI21
(dp29
sI22
(dp30
sI23
(dp31
sI24
(dp32
sI25
(dp33
sI26
(dp34
sI27
(dp35
sI28
(dp36
sI29
(dp37
sI30
(dp38
sI31
(dp39
sI32
(dp40
sI33
(dp41
sI34
(dp42
sI35
(dp43
sI36
(dp44
sI37
(dp45
sI38
(dp46
ssS'node_dict_factory'
p47
c__builtin__
dict
p48
sS'edge_attr_dict_factory'
p49
g48
sS'succ'
p50
(dp51
I0
(dp52
I3
(dp53
ssI1
(dp54
I4
(dp55
ssI2
(dp56
I5
(dp57
ssI3
(dp58
I6
(dp59
ssI4
(dp60
I6
(dp61
ssI5
(dp62
I6
(dp63
ssI6
(dp64
I7
(dp65
ssI7
(dp66
I8
(dp67
sI9
(dp68
sI10
(dp69
ssI8
(dp70
I11
(dp71
sI12
(dp72
sI13
(dp73
ssI9
(dp74
I16
(dp75
sI14
(dp76
sI15
(dp77
ssI10
(dp78
I17
(dp79
sI18
(dp80
sI19
(dp81
ssI11
(dp82
I20
(dp83
ssI12
(dp84
I21
(dp85
ssI13
(dp86
I22
(dp87
ssI14
(dp88
I20
(dp89
ssI15
(dp90
I21
(dp91
ssI16
(dp92
I22
(dp93
ssI17
(dp94
I20
(dp95
ssI18
(dp96
I21
(dp97
ssI19
(dp98
I22
(dp99
ssI20
(dp100
I24
(dp101
sI25
(dp102
sI23
(dp103
ssI21
(dp104
I24
(dp105
sI25
(dp106
sI23
(dp107
ssI22
(dp108
I24
(dp109
sI25
(dp110
sI23
(dp111
ssI23
(dp112
I26
(dp113
sI27
(dp114
ssI24
(dp115
I28
(dp116
sI29
(dp117
ssI25
(dp118
I30
(dp119
sI31
(dp120
ssI26
(dp121
I32
(dp122
sI33
(dp123
sI34
(dp124
ssI27
(dp125
I35
(dp126
sI36
(dp127
sI37
(dp128
ssI28
(dp129
I32
(dp130
sI33
(dp131
sI34
(dp132
ssI29
(dp133
I35
(dp134
sI36
(dp135
sI37
(dp136
ssI30
(dp137
I32
(dp138
sI33
(dp139
sI34
(dp140
ssI31
(dp141
I35
(dp142
sI36
(dp143
sI37
(dp144
ssI32
(dp145
I38
(dp146
ssI33
(dp147
I38
(dp148
ssI34
(dp149
I38
(dp150
ssI35
(dp151
I38
(dp152
ssI36
(dp153
I38
(dp154
ssI37
(dp155
I38
(dp156
ssI38
(dp157
ssS'edge'
p158
g51
sS'graph'
p159
(dp160
sS'adjlist_dict_factory'
p161
g48
sS'adj'
p162
g51
sS'pred'
p163
(dp164
I0
(dp165
sI1
(dp166
sI2
(dp167
sI3
(dp168
I0
g53
ssI4
(dp169
I1
g55
ssI5
(dp170
I2
g57
ssI6
(dp171
I3
g59
sI4
g61
sI5
g63
ssI7
(dp172
I6
g65
ssI8
(dp173
I7
g67
ssI9
(dp174
I7
g68
ssI10
(dp175
I7
g69
ssI11
(dp176
I8
g71
ssI12
(dp177
I8
g72
ssI13
(dp178
I8
g73
ssI14
(dp179
I9
g76
ssI15
(dp180
I9
g77
ssI16
(dp181
I9
g75
ssI17
(dp182
I10
g79
ssI18
(dp183
I10
g80
ssI19
(dp184
I10
g81
ssI20
(dp185
I17
g95
sI11
g83
sI14
g89
ssI21
(dp186
I18
g97
sI12
g85
sI15
g91
ssI22
(dp187
I16
g93
sI19
g99
sI13
g87
ssI23
(dp188
I20
g103
sI21
g107
sI22
g111
ssI24
(dp189
I20
g101
sI21
g105
sI22
g109
ssI25
(dp190
I20
g102
sI21
g106
sI22
g110
ssI26
(dp191
I23
g113
ssI27
(dp192
I23
g114
ssI28
(dp193
I24
g116
ssI29
(dp194
I24
g117
ssI30
(dp195
I25
g119
ssI31
(dp196
I25
g120
ssI32
(dp197
I26
g122
sI28
g130
sI30
g138
ssI33
(dp198
I26
g123
sI28
g131
sI30
g139
ssI34
(dp199
I26
g124
sI28
g132
sI30
g140
ssI35
(dp200
I27
g126
sI29
g134
sI31
g142
ssI36
(dp201
I27
g127
sI29
g135
sI31
g143
ssI37
(dp202
I27
g128
sI29
g136
sI31
g144
ssI38
(dp203
I32
g146
sI33
g148
sI34
g150
sI35
g152
sI36
g154
sI37
g156
sssb.