ccopy_reg
_reconstructor
p0
(cnetworkx.classes.digraph
DiGraph
p1
c__builtin__
object
p2
Ntp3
Rp4
(dp5
S'node'
p6
(dp7
I0
(dp8
sI1
(dp9
sI2
(dp10
sI3
(dp11
sI4
(dp12
sI5
(dp13
sI6
(dp14
sI7
(dp15
sI8
(dp16
sI9
(dp17
sI10
(dp18
sI11
(dp19
sI12
(dp20
sI13
(dp21
sI14
(dp22
sI15
(dp23
sI16
(dp24
sI17
(dp25
sI18
(dp26
sI19
(dp27
sI20
(dp28
sI21
(dp29
sI22
(dp30
sI23
(dp31
sI24
(dp32
sI25
(dp33
sI26
(dp34
sI27
(dp35
sI28
(dp36
sI29
(dp37
sI30
(dp38
sI31
(dp39
sI32
(dp40
sI33
(dp41
sI34
(dp42
sI35
(dp43
sI36
(dp44
sI37
(dp45
sI38
(dp46
sI39
(dp47
sI40
(dp48
sI41
(dp49
sI42
(dp50
sI43
(dp51
sI44
(dp52
sI45
(dp53
sI46
(dp54
sI47
(dp55
sI48
(dp56
sI49
(dp57
sI50
(dp58
sI51
(dp59
sI52
(dp60
sI53
(dp61
sI54
(dp62
sI55
(dp63
sI56
(dp64
sI57
(dp65
sI58
(dp66
sI59
(dp67
sI60
(dp68
sI61
(dp69
sI62
(dp70
sI63
(dp71
sI64
(dp72
sI65
(dp73
sI66
(dp74
sI67
(dp75
sI68
(dp76
sI69
(dp77
sI70
(dp78
sI71
(dp79
sI72
(dp80
sI73
(dp81
sI74
(dp82
sI75
(dp83
sI76
(dp84
sI77
(dp85
sI78
(dp86
sI79
(dp87
sI80
(dp88
ssS'node_dict_factory'
p89
c__builtin__
dict
p90
sS'edge_attr_dict_factory'
p91
g90
sS'succ'
p92
(dp93
I0
(dp94
I4
(dp95
ssI1
(dp96
I5
(dp97
ssI2
(dp98
I6
(dp99
ssI3
(dp100
I7
(dp101
ssI4
(dp102
I8
(dp103
sI9
(dp104
ssI5
(dp105
I10
(dp106
sI11
(dp107
ssI6
(dp108
I8
(dp109
sI9
(dp110
ssI7
(dp111
I10
(dp112
sI11
(dp113
ssI8
(dp114
I12
(dp115
sI13
(dp116
ssI9
(dp117
I14
(dp118
sI15
(dp119
ssI10
(dp120
I12
(dp121
sI13
(dp122
ssI11
(dp123
I14
(dp124
sI15
(dp125
ssI12
(dp126
I16
(dp127
sI17
(dp128
ssI13
(dp129
I18
(dp130
sI19
(dp131
ssI14
(dp132
I16
(dp133
sI17
(dp134
ssI15
(dp135
I18
(dp136
sI19
(dp137
ssI16
(dp138
I20
(dp139
sI21
(dp140
ssI17
(dp141
I22
(dp142
sI23
(dp143
ssI18
(dp144
I20
(dp145
sI21
(dp146
ssI19
(dp147
I22
(dp148
sI23
(dp149
ssI20
(dp150
I24
(dp151
sI25
(dp152
ssI21
(dp153
I26
(dp154
sI27
(dp155
ssI22
(dp156
I24
(dp157
sI25
(dp158
ssI23
(dp159
I26
(dp160
sI27
(dp161
ssI24
(dp162
I28
(dp163
sI29
(dp164
ssI25
(dp165
I30
(dp166
sI31
(dp167
ssI26
(dp168
I28
(dp169
sI29
(dp170
ssI27
(dp171
I30
(dp172
sI31
(dp173
ssI28
(dp174
I32
(dp175
sI33
(dp176
ssI29
(dp177
I34
(dp178
sI35
(dp179
ssI30
(dp180
I32
(dp181
sI33
(dp182
ssI31
(dp183
I34
(dp184
sI35
(dp185
ssI32
(dp186
I36
(dp187
sI37
(dp188
ssI33
(dp189
I38
(dp190
sI39
(dp191
ssI34
(dp192
I36
(dp193
sI37
(dp194
ssI35
(dp195
I38
(dp196
sI39
(dp197
ssI36
(dp198
I40
(dp199
sI41
(dp200
ssI37
(dp201
I42
(dp202
sI43
(dp203
ssI38
(dp204
I40
(dp205
sI41
(dp206
ssI39
(dp207
I42
(dp208
sI43
(dp209
ssI40
(dp210
I44
(dp211
sI45
(dp212
ssI41
(dp213
I46
(dp214
sI47
(dp215
ssI42
(dp216
I44
(dp217
sI45
(dp218
ssI43
(dp219
I46
(dp220
sI47
(dp221
ssI44
(dp222
I48
(dp223
sI49
(dp224
ssI45
(dp225
I50
(dp226
sI51
(dp227
ssI46
(dp228
I48
(dp229
sI49
(dp230
ssI47
(dp231
I50
(dp232
sI51
(dp233
ssI48
(dp234
I52
(dp235
sI53
(dp236
ssI49
(dp237
I54
(dp238
sI55
(dp239
ssI50
(dp240
I52
(dp241
sI53
(dp242
ssI51
(dp243
I54
(dp244
sI55
(dp245
ssI52
(dp246
I56
(dp247
sI57
(dp248
ssI53
(dp249
I58
(dp250
sI59
(dp251
ssI54
(dp252
I56
(dp253
sI57
(dp254
ssI55
(dp255
I58
(dp256
sI59
(dp257
ssI56
(dp258
I60
(dp259
sI61
(dp260
ssI57
(dp261
I62
(dp262
sI63
(dp263
ssI58
(dp264
I60
(dp265
sI61
(dp266
ssI59
(dp267
I62
(dp268
sI63
(dp269
ssI60
(dp270
I64
(dp271
sI65
(dp272
ssI61
(dp273
I66
(dp274
sI67
(dp275
ssI62
(dp276
I64
(dp277
sI65
(dp278
ssI63
(dp279
I66
(dp280
sI67
(dp281
ssI64
(dp282
I68
(dp283
sI69
(dp284
ssI65
(dp285
I70
(dp286
sI71
(dp287
ssI66
(dp288
I68
(dp289
sI69
(dp290
ssI67
(dp291
I70
(dp292
sI71
(dp293
ssI68
(dp294
I72
(dp295
sI73
(dp296
ssI69
(dp297
I74
(dp298
sI75
(dp299
ssI70
(dp300
I72
(dp301
sI73
(dp302
ssI71
(dp303
I74
(dp304
sI75
(dp305
ssI72
(dp306
I76
(dp307
sI77
(dp308
ssI73
(dp309
I78
(dp310
sI79
(dp311
ssI74
(dp312
I76
(dp313
sI77
(dp314
ssI75
(dp315
I78
(dp316
sI79
(dp317
ssI76
(dp318
I80
(dp319
ssI77
(dp320
I80
(dp321
ssI78
(dp322
I80
(dp323
ssI79
(dp324
I80
(dp325
ssI80
(dp326
ssS'edge'
p327
g93
sS'graph'
p328
(dp329
sS'adjlist_dict_factory'
p330
g90
sS'adj'
p331
g93
sS'pred'
p332
(dp333
I0
(dp334
sI1
(dp335
sI2
(dp336
sI3
(dp337
sI4
(dp338
I0
g95
ssI5
(dp339
I1
g97
ssI6
(dp340
I2
g99
ssI7
(dp341
I3
g101
ssI8
(dp342
I4
g103
sI6
g109
ssI9
(dp343
I4
g104
sI6
g110
ssI10
(dp344
I5
g106
sI7
g112
ssI11
(dp345
I5
g107
sI7
g113
ssI12
(dp346
I8
g115
sI10
g121
ssI13
(dp347
I8
g116
sI10
g122
ssI14
(dp348
I9
g118
sI11
g124
ssI15
(dp349
I9
g119
sI11
g125
ssI16
(dp350
I12
g127
sI14
g133
ssI17
(dp351
I12
g128
sI14
g134
ssI18
(dp352
I13
g130
sI15
g136
ssI19
(dp353
I13
g131
sI15
g137
ssI20
(dp354
I16
g139
sI18
g145
ssI21
(dp355
I16
g140
sI18
g146
ssI22
(dp356
I17
g142
sI19
g148
ssI23
(dp357
I17
g143
sI19
g149
ssI24
(dp358
I20
g151
sI22
g157
ssI25
(dp359
I20
g152
sI22
g158
ssI26
(dp360
I21
g154
sI23
g160
ssI27
(dp361
I21
g155
sI23
g161
ssI28
(dp362
I24
g163
sI26
g169
ssI29
(dp363
I24
g164
sI26
g170
ssI30
(dp364
I25
g166
sI27
g172
ssI31
(dp365
I25
g167
sI27
g173
ssI32
(dp366
I28
g175
sI30
g181
ssI33
(dp367
I28
g176
sI30
g182
ssI34
(dp368
I29
g178
sI31
g184
ssI35
(dp369
I29
g179
sI31
g185
ssI36
(dp370
I32
g187
sI34
g193
ssI37
(dp371
I32
g188
sI34
g194
ssI38
(dp372
I33
g190
sI35
g196
ssI39
(dp373
I33
g191
sI35
g197
ssI40
(dp374
I36
g199
sI38
g205
ssI41
(dp375
I36
g200
sI38
g206
ssI42
(dp376
I37
g202
sI39
g208
ssI43
(dp377
I37
g203
sI39
g209
ssI44
(dp378
I40
g211
sI42
g217
ssI45
(dp379
I40
g212
sI42
g218
ssI46
(dp380
I41
g214
sI43
g220
ssI47
(dp381
I41
g215
sI43
g221
ssI48
(dp382
I44
g223
sI46
g229
ssI49
(dp383
I44
g224
sI46
g230
ssI50
(dp384
I45
g226
sI47
g232
ssI51
(dp385
I45
g227
sI47
g233
ssI52
(dp386
I48
g235
sI50
g241
ssI53
(dp387
I48
g236
sI50
g242
ssI54
(dp388
I49
g238
sI51
g244
ssI55
(dp389
I49
g239
sI51
g245
ssI56
(dp390
I52
g247
sI54
g253
ssI57
(dp391
I52
g248
sI54
g254
ssI58
(dp392
I53
g250
sI55
g256
ssI59
(dp393
I53
g251
sI55
g257
ssI60
(dp394
I56
g259
sI58
g265
ssI61
(dp395
I56
g260
sI58
g266
ssI62
(dp396
I57
g262
sI59
g268
ssI63
(dp397
I57
g263
sI59
g269
ssI64
(dp398
I60
g271
sI62
g277
ssI65
(dp399
I60
g272
sI62
g278
ssI66
(dp400
I61
g274
sI63
g280
ssI67
(dp401
I61
g275
sI63
g281
ssI68
(dp402
I64
g283
sI66
g289
ssI69
(dp403
I64
g284
sI66
g290
ssI70
(dp404
I65
g286
sI67
g292
ssI71
(dp405
I65
g287
sI67
g293
ssI72
(dp406
I68
g295
sI70
g301
ssI73
(dp407
I68
g296
sI70
g302
ssI74
(dp408
I69
g298
sI71
g304
ssI75
(dp409
I69
g299
sI71
g305
ssI76
(dp410
I72
g307
sI74
g313
ssI77
(dp411
I72
g308
sI74
g314
ssI78
(dp412
I73
g310
sI75
g316
ssI79
(dp413
I73
g311
sI75
g317
ssI80
(dp414
I76
g319
sI77
g321
sI78
g323
sI79
g325
sssb.