ccopy_reg
_reconstructor
p0
(cnetworkx.classes.digraph
DiGraph
p1
c__builtin__
object
p2
Ntp3
Rp4
(dp5
S'node'
p6
(dp7
I0
(dp8
sI1
(dp9
sI2
(dp10
sI3
(dp11
sI4
(dp12
sI5
(dp13
sI6
(dp14
sI7
(dp15
sI8
(dp16
sI9
(dp17
sI10
(dp18
sI11
(dp19
sI12
(dp20
sI13
(dp21
sI14
(dp22
sI15
(dp23
sI16
(dp24
sI17
(dp25
sI18
(dp26
sI19
(dp27
sI20
(dp28
sI21
(dp29
sI22
(dp30
sI23
(dp31
sI24
(dp32
sI25
(dp33
sI26
(dp34
sI27
(dp35
sI28
(dp36
sI29
(dp37
sI30
(dp38
sI31
(dp39
sI32
(dp40
sI33
(dp41
sI34
(dp42
sI35
(dp43
sI36
(dp44
sI37
(dp45
sI38
(dp46
sI39
(dp47
sI40
(dp48
sI41
(dp49
sI42
(dp50
sI43
(dp51
sI44
(dp52
sI45
(dp53
sI46
(dp54
sI47
(dp55
ssS'node_dict_factory'
p56
c__builtin__
dict
p57
sS'edge_attr_dict_factory'
p58
g57
sS'succ'
p59
(dp60
I0
(dp61
I6
(dp62
ssI1
(dp63
I7
(dp64
ssI2
(dp65
I8
(dp66
ssI3
(dp67
I9
(dp68
ssI4
(dp69
I10
(dp70
ssI5
(dp71
I11
(dp72
ssI6
(dp73
I12
(dp74
ssI7
(dp75
I13
(dp76
ssI8
(dp77
I12
(dp78
ssI9
(dp79
I13
(dp80
ssI10
(dp81
I12
(dp82
ssI11
(dp83
I13
(dp84
ssI12
(dp85
I14
(dp86
ssI13
(dp87
I14
(dp88
ssI14
(dp89
I16
(dp90
sI15
(dp91
ssI15
(dp92
I17
(dp93
sI18
(dp94
ssI16
(dp95
I19
(dp96
sI20
(dp97
ssI17
(dp98
I21
(dp99
ssI18
(dp100
I22
(dp101
ssI19
(dp102
I21
(dp103
ssI20
(dp104
I22
(dp105
ssI21
(dp106
I23
(dp107
ssI22
(dp108
I23
(dp109
ssI23
(dp110
I24
(dp111
sI25
(dp112
ssI24
(dp113
I26
(dp114
ssI25
(dp115
I27
(dp116
ssI26
(dp117
I28
(dp118
sI29
(dp119
ssI27
(dp120
I28
(dp121
sI29
(dp122
ssI28
(dp123
I30
(dp124
ssI29
(dp125
I31
(dp126
ssI30
(dp127
I32
(dp128
sI33
(dp129
sI34
(dp130
ssI31
(dp131
I32
(dp132
sI33
(dp133
sI34
(dp134
ssI32
(dp135
I35
(dp136
sI36
(dp137
ssI33
(dp138
I37
(dp139
sI38
(dp140
ssI34
(dp141
I40
(dp142
sI39
(dp143
ssI35
(dp144
I41
(dp145
sI42
(dp146
sI43
(dp147
ssI36
(dp148
I44
(dp149
sI45
(dp150
sI46
(dp151
ssI37
(dp152
I41
(dp153
sI42
(dp154
sI43
(dp155
ssI38
(dp156
I44
(dp157
sI45
(dp158
sI46
(dp159
ssI39
(dp160
I41
(dp161
sI42
(dp162
sI43
(dp163
ssI40
(dp164
I44
(dp165
sI45
(dp166
sI46
(dp167
ssI41
(dp168
I47
(dp169
ssI42
(dp170
I47
(dp171
ssI43
(dp172
I47
(dp173
ssI44
(dp174
I47
(dp175
ssI45
(dp176
I47
(dp177
ssI46
(dp178
I47
(dp179
ssI47
(dp180
ssS'edge'
p181
g60
sS'graph'
p182
(dp183
sS'adjlist_dict_factory'
p184
g57
sS'adj'
p185
g60
sS'pred'
p186
(dp187
I0
(dp188
sI1
(dp189
sI2
(dp190
sI3
(dp191
sI4
(dp192
sI5
(dp193
sI6
(dp194
I0
g62
ssI7
(dp195
I1
g64
ssI8
(dp196
I2
g66
ssI9
(dp197
I3
g68
ssI10
(dp198
I4
g70
ssI11
(dp199
I5
g72
ssI12
(dp200
I8
g78
sI10
g82
sI6
g74
ssI13
(dp201
I9
g80
sI11
g84
sI7
g76
ssI14
(dp202
I12
g86
sI13
g88
ssI15
(dp203
I14
g91
ssI16
(dp204
I14
g90
ssI17
(dp205
I15
g93
ssI18
(dp206
I15
g94
ssI19
(dp207
I16
g96
ssI20
(dp208
I16
g97
ssI21
(dp209
I17
g99
sI19
g103
ssI22
(dp210
I18
g101
sI20
g105
ssI23
(dp211
I21
g107
sI22
g109
ssI24
(dp212
I23
g111
ssI25
(dp213
I23
g112
ssI26
(dp214
I24
g114
ssI27
(dp215
I25
g116
ssI28
(dp216
I26
g118
sI27
g121
ssI29
(dp217
I26
g119
sI27
g122
ssI30
(dp218
I28
g124
ssI31
(dp219
I29
g126
ssI32
(dp220
I30
g128
sI31
g132
ssI33
(dp221
I30
g129
sI31
g133
ssI34
(dp222
I30
g130
sI31
g134
ssI35
(dp223
I32
g136
ssI36
(dp224
I32
g137
ssI37
(dp225
I33
g139
ssI38
(dp226
I33
g140
ssI39
(dp227
I34
g143
ssI40
(dp228
I34
g142
ssI41
(dp229
I35
g145
sI37
g153
sI39
g161
ssI42
(dp230
I35
g146
sI37
g154
sI39
g162
ssI43
(dp231
I35
g147
sI37
g155
sI39
g163
ssI44
(dp232
I40
g165
sI36
g149
sI38
g157
ssI45
(dp233
I40
g166
sI36
g150
sI38
g158
ssI46
(dp234
I40
g167
sI36
g151
sI38
g159
ssI47
(dp235
I41
g169
sI42
g171
sI43
g173
sI44
g175
sI45
g177
sI46
g179
sssb.