ccopy_reg
_reconstructor
p0
(cnetworkx.classes.digraph
DiGraph
p1
c__builtin__
object
p2
Ntp3
Rp4
(dp5
S'node'
p6
(dp7
I0
(dp8
sI1
(dp9
sI2
(dp10
sI3
(dp11
sI4
(dp12
sI5
(dp13
sI6
(dp14
sI7
(dp15
sI8
(dp16
sI9
(dp17
sI10
(dp18
sI11
(dp19
sI12
(dp20
sI13
(dp21
sI14
(dp22
sI15
(dp23
sI16
(dp24
sI17
(dp25
sI18
(dp26
sI19
(dp27
sI20
(dp28
sI21
(dp29
sI22
(dp30
sI23
(dp31
sI24
(dp32
sI25
(dp33
sI26
(dp34
sI27
(dp35
sI28
(dp36
sI29
(dp37
sI30
(dp38
sI31
(dp39
sI32
(dp40
sI33
(dp41
sI34
(dp42
sI35
(dp43
sI36
(dp44
sI37
(dp45
sI38
(dp46
sI39
(dp47
sI40
(dp48
sI41
(dp49
sI42
(dp50
sI43
(dp51
sI44
(dp52
ssS'node_dict_factory'
p53
c__builtin__
dict
p54
sS'edge_attr_dict_factory'
p55
g54
sS'succ'
p56
(dp57
I0
(dp58
I4
(dp59
ssI1
(dp60
I5
(dp61
ssI2
(dp62
I6
(dp63
ssI3
(dp64
I7
(dp65
ssI4
(dp66
I8
(dp67
sI9
(dp68
ssI5
(dp69
I10
(dp70
sI11
(dp71
ssI6
(dp72
I8
(dp73
sI9
(dp74
ssI7
(dp75
I10
(dp76
sI11
(dp77
ssI8
(dp78
I12
(dp79
sI13
(dp80
ssI9
(dp81
I14
(dp82
sI15
(dp83
ssI10
(dp84
I12
(dp85
sI13
(dp86
ssI11
(dp87
I14
(dp88
sI15
(dp89
ssI12
(dp90
I16
(dp91
sI17
(dp92
ssI13
(dp93
I18
(dp94
sI19
(dp95
ssI14
(dp96
I16
(dp97
sI17
(dp98
ssI15
(dp99
I18
(dp100
sI19
(dp101
ssI16
(dp102
I20
(dp103
sI21
(dp104
ssI17
(dp105
I22
(dp106
sI23
(dp107
ssI18
(dp108
I20
(dp109
sI21
(dp110
ssI19
(dp111
I22
(dp112
sI23
(dp113
ssI20
(dp114
I24
(dp115
sI25
(dp116
ssI21
(dp117
I26
(dp118
sI27
(dp119
ssI22
(dp120
I24
(dp121
sI25
(dp122
ssI23
(dp123
I26
(dp124
sI27
(dp125
ssI24
(dp126
I28
(dp127
sI29
(dp128
ssI25
(dp129
I30
(dp130
sI31
(dp131
ssI26
(dp132
I28
(dp133
sI29
(dp134
ssI27
(dp135
I30
(dp136
sI31
(dp137
ssI28
(dp138
I32
(dp139
sI33
(dp140
ssI29
(dp141
I34
(dp142
sI35
(dp143
ssI30
(dp144
I32
(dp145
sI33
(dp146
ssI31
(dp147
I34
(dp148
sI35
(dp149
ssI32
(dp150
I36
(dp151
sI37
(dp152
ssI33
(dp153
I38
(dp154
sI39
(dp155
ssI34
(dp156
I36
(dp157
sI37
(dp158
ssI35
(dp159
I38
(dp160
sI39
(dp161
ssI36
(dp162
I40
(dp163
sI41
(dp164
ssI37
(dp165
I42
(dp166
sI43
(dp167
ssI38
(dp168
I40
(dp169
sI41
(dp170
ssI39
(dp171
I42
(dp172
sI43
(dp173
ssI40
(dp174
I44
(dp175
ssI41
(dp176
I44
(dp177
ssI42
(dp178
I44
(dp179
ssI43
(dp180
I44
(dp181
ssI44
(dp182
ssS'edge'
p183
g57
sS'graph'
p184
(dp185
sS'adjlist_dict_factory'
p186
g54
sS'adj'
p187
g57
sS'pred'
p188
(dp189
I0
(dp190
sI1
(dp191
sI2
(dp192
sI3
(dp193
sI4
(dp194
I0
g59
ssI5
(dp195
I1
g61
ssI6
(dp196
I2
g63
ssI7
(dp197
I3
g65
ssI8
(dp198
I4
g67
sI6
g73
ssI9
(dp199
I4
g68
sI6
g74
ssI10
(dp200
I5
g70
sI7
g76
ssI11
(dp201
I5
g71
sI7
g77
ssI12
(dp202
I8
g79
sI10
g85
ssI13
(dp203
I8
g80
sI10
g86
ssI14
(dp204
I9
g82
sI11
g88
ssI15
(dp205
I9
g83
sI11
g89
ssI16
(dp206
I12
g91
sI14
g97
ssI17
(dp207
I12
g92
sI14
g98
ssI18
(dp208
I13
g94
sI15
g100
ssI19
(dp209
I13
g95
sI15
g101
ssI20
(dp210
I16
g103
sI18
g109
ssI21
(dp211
I16
g104
sI18
g110
ssI22
(dp212
I17
g106
sI19
g112
ssI23
(dp213
I17
g107
sI19
g113
ssI24
(dp214
I20
g115
sI22
g121
ssI25
(dp215
I20
g116
sI22
g122
ssI26
(dp216
I21
g118
sI23
g124
ssI27
(dp217
I21
g119
sI23
g125
ssI28
(dp218
I24
g127
sI26
g133
ssI29
(dp219
I24
g128
sI26
g134
ssI30
(dp220
I25
g130
sI27
g136
ssI31
(dp221
I25
g131
sI27
g137
ssI32
(dp222
I28
g139
sI30
g145
ssI33
(dp223
I28
g140
sI30
g146
ssI34
(dp224
I29
g142
sI31
g148
ssI35
(dp225
I29
g143
sI31
g149
ssI36
(dp226
I32
g151
sI34
g157
ssI37
(dp227
I32
g152
sI34
g158
ssI38
(dp228
I33
g154
sI35
g160
ssI39
(dp229
I33
g155
sI35
g161
ssI40
(dp230
I36
g163
sI38
g169
ssI41
(dp231
I36
g164
sI38
g170
ssI42
(dp232
I37
g166
sI39
g172
ssI43
(dp233
I37
g167
sI39
g173
ssI44
(dp234
I40
g175
sI41
g177
sI42
g179
sI43
g181
sssb.