ccopy_reg
_reconstructor
p0
(cnetworkx.classes.digraph
DiGraph
p1
c__builtin__
object
p2
Ntp3
Rp4
(dp5
S'node'
p6
(dp7
I0
(dp8
sI1
(dp9
sI2
(dp10
ssS'graph'
p11
(dp12
sS'succ'
p13
(dp14
I0
(dp15
I1
(dp16
ssI1
(dp17
I2
(dp18
ssI2
(dp19
ssS'edge'
p20
g14
sS'pred'
p21
(dp22
I0
(dp23
sI1
(dp24
I0
g16
ssI2
(dp25
I1
g18
sssS'adj'
p26
g14
sb.