ccopy_reg
_reconstructor
p0
(cnetworkx.classes.digraph
DiGraph
p1
c__builtin__
object
p2
Ntp3
Rp4
(dp5
S'node'
p6
(dp7
I0
(dp8
sI1
(dp9
sI2
(dp10
sI3
(dp11
sI4
(dp12
sI5
(dp13
sI6
(dp14
sI7
(dp15
sI8
(dp16
sI9
(dp17
sI10
(dp18
sI11
(dp19
sI12
(dp20
sI13
(dp21
sI14
(dp22
sI15
(dp23
sI16
(dp24
sI17
(dp25
sI18
(dp26
sI19
(dp27
sI20
(dp28
sI21
(dp29
ssS'graph'
p30
(dp31
sS'succ'
p32
(dp33
I0
(dp34
I6
(dp35
ssI1
(dp36
I7
(dp37
ssI2
(dp38
I8
(dp39
ssI3
(dp40
I9
(dp41
ssI4
(dp42
I10
(dp43
ssI5
(dp44
I11
(dp45
ssI6
(dp46
I12
(dp47
ssI7
(dp48
I13
(dp49
ssI8
(dp50
I12
(dp51
ssI9
(dp52
I13
(dp53
ssI10
(dp54
I12
(dp55
ssI11
(dp56
I13
(dp57
ssI12
(dp58
I14
(dp59
ssI13
(dp60
I14
(dp61
ssI14
(dp62
I16
(dp63
sI15
(dp64
ssI15
(dp65
I17
(dp66
sI18
(dp67
ssI16
(dp68
I19
(dp69
sI20
(dp70
ssI17
(dp71
I21
(dp72
ssI18
(dp73
I21
(dp74
ssI19
(dp75
I21
(dp76
ssI20
(dp77
I21
(dp78
ssI21
(dp79
ssS'edge'
p80
g33
sS'pred'
p81
(dp82
I0
(dp83
sI1
(dp84
sI2
(dp85
sI3
(dp86
sI4
(dp87
sI5
(dp88
sI6
(dp89
I0
g35
ssI7
(dp90
I1
g37
ssI8
(dp91
I2
g39
ssI9
(dp92
I3
g41
ssI10
(dp93
I4
g43
ssI11
(dp94
I5
g45
ssI12
(dp95
I8
g51
sI10
g55
sI6
g47
ssI13
(dp96
I9
g53
sI11
g57
sI7
g49
ssI14
(dp97
I12
g59
sI13
g61
ssI15
(dp98
I14
g64
ssI16
(dp99
I14
g63
ssI17
(dp100
I15
g66
ssI18
(dp101
I15
g67
ssI19
(dp102
I16
g69
ssI20
(dp103
I16
g70
ssI21
(dp104
I17
g72
sI18
g74
sI19
g76
sI20
g78
sssS'adj'
p105
g33
sb.