ccopy_reg
_reconstructor
p0
(cnetworkx.classes.digraph
DiGraph
p1
c__builtin__
object
p2
Ntp3
Rp4
(dp5
S'node'
p6
(dp7
I0
(dp8
sI1
(dp9
sI2
(dp10
sI3
(dp11
sI4
(dp12
sI5
(dp13
sI6
(dp14
sI7
(dp15
sI8
(dp16
sI9
(dp17
sI10
(dp18
sI11
(dp19
sI12
(dp20
sI13
(dp21
sI14
(dp22
sI15
(dp23
sI16
(dp24
sI17
(dp25
sI18
(dp26
sI19
(dp27
sI20
(dp28
sI21
(dp29
sI22
(dp30
sI23
(dp31
sI24
(dp32
sI25
(dp33
sI26
(dp34
sI27
(dp35
sI28
(dp36
sI29
(dp37
sI30
(dp38
sI31
(dp39
ssS'node_dict_factory'
p40
c__builtin__
dict
p41
sS'edge_attr_dict_factory'
p42
g41
sS'succ'
p43
(dp44
I0
(dp45
I6
(dp46
ssI1
(dp47
I7
(dp48
ssI2
(dp49
I8
(dp50
ssI3
(dp51
I9
(dp52
ssI4
(dp53
I10
(dp54
ssI5
(dp55
I11
(dp56
ssI6
(dp57
I12
(dp58
sI13
(dp59
ssI7
(dp60
I14
(dp61
sI15
(dp62
ssI8
(dp63
I12
(dp64
sI13
(dp65
ssI9
(dp66
I14
(dp67
sI15
(dp68
ssI10
(dp69
I12
(dp70
sI13
(dp71
ssI11
(dp72
I14
(dp73
sI15
(dp74
ssI12
(dp75
I16
(dp76
sI17
(dp77
sI18
(dp78
ssI13
(dp79
I19
(dp80
sI20
(dp81
sI21
(dp82
ssI14
(dp83
I16
(dp84
sI17
(dp85
sI18
(dp86
ssI15
(dp87
I19
(dp88
sI20
(dp89
sI21
(dp90
ssI16
(dp91
I24
(dp92
sI22
(dp93
sI23
(dp94
ssI17
(dp95
I25
(dp96
sI26
(dp97
sI27
(dp98
ssI18
(dp99
I28
(dp100
sI29
(dp101
sI30
(dp102
ssI19
(dp103
I24
(dp104
sI22
(dp105
sI23
(dp106
ssI20
(dp107
I25
(dp108
sI26
(dp109
sI27
(dp110
ssI21
(dp111
I28
(dp112
sI29
(dp113
sI30
(dp114
ssI22
(dp115
I31
(dp116
ssI23
(dp117
I31
(dp118
ssI24
(dp119
I31
(dp120
ssI25
(dp121
I31
(dp122
ssI26
(dp123
I31
(dp124
ssI27
(dp125
I31
(dp126
ssI28
(dp127
I31
(dp128
ssI29
(dp129
I31
(dp130
ssI30
(dp131
I31
(dp132
ssI31
(dp133
ssS'edge'
p134
g44
sS'graph'
p135
(dp136
sS'adjlist_dict_factory'
p137
g41
sS'adj'
p138
g44
sS'pred'
p139
(dp140
I0
(dp141
sI1
(dp142
sI2
(dp143
sI3
(dp144
sI4
(dp145
sI5
(dp146
sI6
(dp147
I0
g46
ssI7
(dp148
I1
g48
ssI8
(dp149
I2
g50
ssI9
(dp150
I3
g52
ssI10
(dp151
I4
g54
ssI11
(dp152
I5
g56
ssI12
(dp153
I8
g64
sI10
g70
sI6
g58
ssI13
(dp154
I8
g65
sI10
g71
sI6
g59
ssI14
(dp155
I9
g67
sI11
g73
sI7
g61
ssI15
(dp156
I9
g68
sI11
g74
sI7
g62
ssI16
(dp157
I12
g76
sI14
g84
ssI17
(dp158
I12
g77
sI14
g85
ssI18
(dp159
I12
g78
sI14
g86
ssI19
(dp160
I13
g80
sI15
g88
ssI20
(dp161
I13
g81
sI15
g89
ssI21
(dp162
I13
g82
sI15
g90
ssI22
(dp163
I16
g93
sI19
g105
ssI23
(dp164
I16
g94
sI19
g106
ssI24
(dp165
I16
g92
sI19
g104
ssI25
(dp166
I17
g96
sI20
g108
ssI26
(dp167
I17
g97
sI20
g109
ssI27
(dp168
I17
g98
sI20
g110
ssI28
(dp169
I18
g100
sI21
g112
ssI29
(dp170
I18
g101
sI21
g113
ssI30
(dp171
I18
g102
sI21
g114
ssI31
(dp172
I22
g116
sI23
g118
sI24
g120
sI25
g122
sI26
g124
sI27
g126
sI28
g128
sI29
g130
sI30
g132
sssb.