ccopy_reg
_reconstructor
p0
(cnetworkx.classes.digraph
DiGraph
p1
c__builtin__
object
p2
Ntp3
Rp4
(dp5
S'node'
p6
(dp7
I0
(dp8
sI1
(dp9
sI2
(dp10
sI3
(dp11
sI4
(dp12
sI5
(dp13
sI6
(dp14
sI7
(dp15
sI8
(dp16
sI9
(dp17
sI10
(dp18
sI11
(dp19
sI12
(dp20
sI13
(dp21
sI14
(dp22
sI15
(dp23
sI16
(dp24
sI17
(dp25
sI18
(dp26
sI19
(dp27
sI20
(dp28
sI21
(dp29
sI22
(dp30
sI23
(dp31
sI24
(dp32
sI25
(dp33
sI26
(dp34
sI27
(dp35
sI28
(dp36
sI29
(dp37
sI30
(dp38
sI31
(dp39
sI32
(dp40
sI33
(dp41
sI34
(dp42
sI35
(dp43
sI36
(dp44
sI37
(dp45
sI38
(dp46
sI39
(dp47
sI40
(dp48
sI41
(dp49
sI42
(dp50
sI43
(dp51
sI44
(dp52
sI45
(dp53
sI46
(dp54
sI47
(dp55
sI48
(dp56
sI49
(dp57
sI50
(dp58
sI51
(dp59
sI52
(dp60
sI53
(dp61
sI54
(dp62
sI55
(dp63
sI56
(dp64
sI57
(dp65
sI58
(dp66
sI59
(dp67
sI60
(dp68
sI61
(dp69
sI62
(dp70
sI63
(dp71
sI64
(dp72
ssS'node_dict_factory'
p73
c__builtin__
dict
p74
sS'edge_attr_dict_factory'
p75
g74
sS'succ'
p76
(dp77
I0
(dp78
I4
(dp79
ssI1
(dp80
I5
(dp81
ssI2
(dp82
I6
(dp83
ssI3
(dp84
I7
(dp85
ssI4
(dp86
I8
(dp87
sI9
(dp88
ssI5
(dp89
I10
(dp90
sI11
(dp91
ssI6
(dp92
I8
(dp93
sI9
(dp94
ssI7
(dp95
I10
(dp96
sI11
(dp97
ssI8
(dp98
I12
(dp99
sI13
(dp100
ssI9
(dp101
I14
(dp102
sI15
(dp103
ssI10
(dp104
I12
(dp105
sI13
(dp106
ssI11
(dp107
I14
(dp108
sI15
(dp109
ssI12
(dp110
I16
(dp111
sI17
(dp112
ssI13
(dp113
I18
(dp114
sI19
(dp115
ssI14
(dp116
I16
(dp117
sI17
(dp118
ssI15
(dp119
I18
(dp120
sI19
(dp121
ssI16
(dp122
I20
(dp123
sI21
(dp124
ssI17
(dp125
I22
(dp126
sI23
(dp127
ssI18
(dp128
I20
(dp129
sI21
(dp130
ssI19
(dp131
I22
(dp132
sI23
(dp133
ssI20
(dp134
I24
(dp135
sI25
(dp136
ssI21
(dp137
I26
(dp138
sI27
(dp139
ssI22
(dp140
I24
(dp141
sI25
(dp142
ssI23
(dp143
I26
(dp144
sI27
(dp145
ssI24
(dp146
I28
(dp147
sI29
(dp148
ssI25
(dp149
I30
(dp150
sI31
(dp151
ssI26
(dp152
I28
(dp153
sI29
(dp154
ssI27
(dp155
I30
(dp156
sI31
(dp157
ssI28
(dp158
I32
(dp159
sI33
(dp160
ssI29
(dp161
I34
(dp162
sI35
(dp163
ssI30
(dp164
I32
(dp165
sI33
(dp166
ssI31
(dp167
I34
(dp168
sI35
(dp169
ssI32
(dp170
I36
(dp171
sI37
(dp172
ssI33
(dp173
I38
(dp174
sI39
(dp175
ssI34
(dp176
I36
(dp177
sI37
(dp178
ssI35
(dp179
I38
(dp180
sI39
(dp181
ssI36
(dp182
I40
(dp183
sI41
(dp184
ssI37
(dp185
I42
(dp186
sI43
(dp187
ssI38
(dp188
I40
(dp189
sI41
(dp190
ssI39
(dp191
I42
(dp192
sI43
(dp193
ssI40
(dp194
I44
(dp195
sI45
(dp196
ssI41
(dp197
I46
(dp198
sI47
(dp199
ssI42
(dp200
I44
(dp201
sI45
(dp202
ssI43
(dp203
I46
(dp204
sI47
(dp205
ssI44
(dp206
I48
(dp207
sI49
(dp208
ssI45
(dp209
I50
(dp210
sI51
(dp211
ssI46
(dp212
I48
(dp213
sI49
(dp214
ssI47
(dp215
I50
(dp216
sI51
(dp217
ssI48
(dp218
I52
(dp219
sI53
(dp220
ssI49
(dp221
I54
(dp222
sI55
(dp223
ssI50
(dp224
I52
(dp225
sI53
(dp226
ssI51
(dp227
I54
(dp228
sI55
(dp229
ssI52
(dp230
I56
(dp231
sI57
(dp232
ssI53
(dp233
I58
(dp234
sI59
(dp235
ssI54
(dp236
I56
(dp237
sI57
(dp238
ssI55
(dp239
I58
(dp240
sI59
(dp241
ssI56
(dp242
I60
(dp243
sI61
(dp244
ssI57
(dp245
I62
(dp246
sI63
(dp247
ssI58
(dp248
I60
(dp249
sI61
(dp250
ssI59
(dp251
I62
(dp252
sI63
(dp253
ssI60
(dp254
I64
(dp255
ssI61
(dp256
I64
(dp257
ssI62
(dp258
I64
(dp259
ssI63
(dp260
I64
(dp261
ssI64
(dp262
ssS'edge'
p263
g77
sS'graph'
p264
(dp265
sS'adjlist_dict_factory'
p266
g74
sS'adj'
p267
g77
sS'pred'
p268
(dp269
I0
(dp270
sI1
(dp271
sI2
(dp272
sI3
(dp273
sI4
(dp274
I0
g79
ssI5
(dp275
I1
g81
ssI6
(dp276
I2
g83
ssI7
(dp277
I3
g85
ssI8
(dp278
I4
g87
sI6
g93
ssI9
(dp279
I4
g88
sI6
g94
ssI10
(dp280
I5
g90
sI7
g96
ssI11
(dp281
I5
g91
sI7
g97
ssI12
(dp282
I8
g99
sI10
g105
ssI13
(dp283
I8
g100
sI10
g106
ssI14
(dp284
I9
g102
sI11
g108
ssI15
(dp285
I9
g103
sI11
g109
ssI16
(dp286
I12
g111
sI14
g117
ssI17
(dp287
I12
g112
sI14
g118
ssI18
(dp288
I13
g114
sI15
g120
ssI19
(dp289
I13
g115
sI15
g121
ssI20
(dp290
I16
g123
sI18
g129
ssI21
(dp291
I16
g124
sI18
g130
ssI22
(dp292
I17
g126
sI19
g132
ssI23
(dp293
I17
g127
sI19
g133
ssI24
(dp294
I20
g135
sI22
g141
ssI25
(dp295
I20
g136
sI22
g142
ssI26
(dp296
I21
g138
sI23
g144
ssI27
(dp297
I21
g139
sI23
g145
ssI28
(dp298
I24
g147
sI26
g153
ssI29
(dp299
I24
g148
sI26
g154
ssI30
(dp300
I25
g150
sI27
g156
ssI31
(dp301
I25
g151
sI27
g157
ssI32
(dp302
I28
g159
sI30
g165
ssI33
(dp303
I28
g160
sI30
g166
ssI34
(dp304
I29
g162
sI31
g168
ssI35
(dp305
I29
g163
sI31
g169
ssI36
(dp306
I32
g171
sI34
g177
ssI37
(dp307
I32
g172
sI34
g178
ssI38
(dp308
I33
g174
sI35
g180
ssI39
(dp309
I33
g175
sI35
g181
ssI40
(dp310
I36
g183
sI38
g189
ssI41
(dp311
I36
g184
sI38
g190
ssI42
(dp312
I37
g186
sI39
g192
ssI43
(dp313
I37
g187
sI39
g193
ssI44
(dp314
I40
g195
sI42
g201
ssI45
(dp315
I40
g196
sI42
g202
ssI46
(dp316
I41
g198
sI43
g204
ssI47
(dp317
I41
g199
sI43
g205
ssI48
(dp318
I44
g207
sI46
g213
ssI49
(dp319
I44
g208
sI46
g214
ssI50
(dp320
I45
g210
sI47
g216
ssI51
(dp321
I45
g211
sI47
g217
ssI52
(dp322
I48
g219
sI50
g225
ssI53
(dp323
I48
g220
sI50
g226
ssI54
(dp324
I49
g222
sI51
g228
ssI55
(dp325
I49
g223
sI51
g229
ssI56
(dp326
I52
g231
sI54
g237
ssI57
(dp327
I52
g232
sI54
g238
ssI58
(dp328
I53
g234
sI55
g240
ssI59
(dp329
I53
g235
sI55
g241
ssI60
(dp330
I56
g243
sI58
g249
ssI61
(dp331
I56
g244
sI58
g250
ssI62
(dp332
I57
g246
sI59
g252
ssI63
(dp333
I57
g247
sI59
g253
ssI64
(dp334
I60
g255
sI61
g257
sI62
g259
sI63
g261
sssb.