ccopy_reg
_reconstructor
p0
(cnetworkx.classes.digraph
DiGraph
p1
c__builtin__
object
p2
Ntp3
Rp4
(dp5
S'node'
p6
(dp7
I0
(dp8
sI1
(dp9
sI2
(dp10
sI3
(dp11
sI4
(dp12
sI5
(dp13
sI6
(dp14
sI7
(dp15
sI8
(dp16
sI9
(dp17
sI10
(dp18
sI11
(dp19
sI12
(dp20
sI13
(dp21
sI14
(dp22
sI15
(dp23
sI16
(dp24
sI17
(dp25
sI18
(dp26
sI19
(dp27
sI20
(dp28
sI21
(dp29
sI22
(dp30
sI23
(dp31
sI24
(dp32
sI25
(dp33
sI26
(dp34
sI27
(dp35
sI28
(dp36
sI29
(dp37
sI30
(dp38
sI31
(dp39
sI32
(dp40
sI33
(dp41
sI34
(dp42
sI35
(dp43
sI36
(dp44
sI37
(dp45
sI38
(dp46
sI39
(dp47
sI40
(dp48
sI41
(dp49
sI42
(dp50
sI43
(dp51
sI44
(dp52
sI45
(dp53
sI46
(dp54
ssS'node_dict_factory'
p55
c__builtin__
dict
p56
sS'edge_attr_dict_factory'
p57
g56
sS'succ'
p58
(dp59
I0
(dp60
I3
(dp61
ssI1
(dp62
I4
(dp63
ssI2
(dp64
I5
(dp65
ssI3
(dp66
I6
(dp67
sI7
(dp68
ssI4
(dp69
I6
(dp70
sI7
(dp71
ssI5
(dp72
I6
(dp73
sI7
(dp74
ssI6
(dp75
I8
(dp76
sI9
(dp77
ssI7
(dp78
I10
(dp79
sI11
(dp80
ssI8
(dp81
I12
(dp82
sI13
(dp83
ssI9
(dp84
I14
(dp85
sI15
(dp86
ssI10
(dp87
I12
(dp88
sI13
(dp89
ssI11
(dp90
I14
(dp91
sI15
(dp92
ssI12
(dp93
I16
(dp94
sI17
(dp95
sI18
(dp96
ssI13
(dp97
I19
(dp98
sI20
(dp99
sI21
(dp100
ssI14
(dp101
I16
(dp102
sI17
(dp103
sI18
(dp104
ssI15
(dp105
I19
(dp106
sI20
(dp107
sI21
(dp108
ssI16
(dp109
I22
(dp110
ssI17
(dp111
I23
(dp112
ssI18
(dp113
I24
(dp114
ssI19
(dp115
I22
(dp116
ssI20
(dp117
I23
(dp118
ssI21
(dp119
I24
(dp120
ssI22
(dp121
I25
(dp122
ssI23
(dp123
I25
(dp124
ssI24
(dp125
I25
(dp126
ssI25
(dp127
I26
(dp128
ssI26
(dp129
I27
(dp130
sI28
(dp131
ssI27
(dp132
I29
(dp133
sI30
(dp134
ssI28
(dp135
I32
(dp136
sI31
(dp137
ssI29
(dp138
I33
(dp139
ssI30
(dp140
I34
(dp141
ssI31
(dp142
I33
(dp143
ssI32
(dp144
I34
(dp145
ssI33
(dp146
I35
(dp147
sI36
(dp148
ssI34
(dp149
I35
(dp150
sI36
(dp151
ssI35
(dp152
I37
(dp153
sI38
(dp154
sI39
(dp155
ssI36
(dp156
I40
(dp157
sI41
(dp158
sI42
(dp159
ssI37
(dp160
I43
(dp161
ssI38
(dp162
I44
(dp163
ssI39
(dp164
I45
(dp165
ssI40
(dp166
I43
(dp167
ssI41
(dp168
I44
(dp169
ssI42
(dp170
I45
(dp171
ssI43
(dp172
I46
(dp173
ssI44
(dp174
I46
(dp175
ssI45
(dp176
I46
(dp177
ssI46
(dp178
ssS'edge'
p179
g59
sS'graph'
p180
(dp181
sS'adjlist_dict_factory'
p182
g56
sS'adj'
p183
g59
sS'pred'
p184
(dp185
I0
(dp186
sI1
(dp187
sI2
(dp188
sI3
(dp189
I0
g61
ssI4
(dp190
I1
g63
ssI5
(dp191
I2
g65
ssI6
(dp192
I3
g67
sI4
g70
sI5
g73
ssI7
(dp193
I3
g68
sI4
g71
sI5
g74
ssI8
(dp194
I6
g76
ssI9
(dp195
I6
g77
ssI10
(dp196
I7
g79
ssI11
(dp197
I7
g80
ssI12
(dp198
I8
g82
sI10
g88
ssI13
(dp199
I8
g83
sI10
g89
ssI14
(dp200
I9
g85
sI11
g91
ssI15
(dp201
I9
g86
sI11
g92
ssI16
(dp202
I12
g94
sI14
g102
ssI17
(dp203
I12
g95
sI14
g103
ssI18
(dp204
I12
g96
sI14
g104
ssI19
(dp205
I13
g98
sI15
g106
ssI20
(dp206
I13
g99
sI15
g107
ssI21
(dp207
I13
g100
sI15
g108
ssI22
(dp208
I16
g110
sI19
g116
ssI23
(dp209
I17
g112
sI20
g118
ssI24
(dp210
I18
g114
sI21
g120
ssI25
(dp211
I24
g126
sI22
g122
sI23
g124
ssI26
(dp212
I25
g128
ssI27
(dp213
I26
g130
ssI28
(dp214
I26
g131
ssI29
(dp215
I27
g133
ssI30
(dp216
I27
g134
ssI31
(dp217
I28
g137
ssI32
(dp218
I28
g136
ssI33
(dp219
I29
g139
sI31
g143
ssI34
(dp220
I32
g145
sI30
g141
ssI35
(dp221
I33
g147
sI34
g150
ssI36
(dp222
I33
g148
sI34
g151
ssI37
(dp223
I35
g153
ssI38
(dp224
I35
g154
ssI39
(dp225
I35
g155
ssI40
(dp226
I36
g157
ssI41
(dp227
I36
g158
ssI42
(dp228
I36
g159
ssI43
(dp229
I40
g167
sI37
g161
ssI44
(dp230
I41
g169
sI38
g163
ssI45
(dp231
I42
g171
sI39
g165
ssI46
(dp232
I43
g173
sI44
g175
sI45
g177
sssb.