ccopy_reg
_reconstructor
p0
(cnetworkx.classes.digraph
DiGraph
p1
c__builtin__
object
p2
Ntp3
Rp4
(dp5
S'node'
p6
(dp7
I0
(dp8
sI1
(dp9
sI2
(dp10
sI3
(dp11
sI4
(dp12
sI5
(dp13
sI6
(dp14
sI7
(dp15
sI8
(dp16
sI9
(dp17
sI10
(dp18
sI11
(dp19
sI12
(dp20
ssS'node_dict_factory'
p21
c__builtin__
dict
p22
sS'edge_attr_dict_factory'
p23
g22
sS'succ'
p24
(dp25
I0
(dp26
I4
(dp27
ssI1
(dp28
I5
(dp29
ssI2
(dp30
I6
(dp31
ssI3
(dp32
I7
(dp33
ssI4
(dp34
I8
(dp35
sI9
(dp36
ssI5
(dp37
I10
(dp38
sI11
(dp39
ssI6
(dp40
I8
(dp41
sI9
(dp42
ssI7
(dp43
I10
(dp44
sI11
(dp45
ssI8
(dp46
I12
(dp47
ssI9
(dp48
I12
(dp49
ssI10
(dp50
I12
(dp51
ssI11
(dp52
I12
(dp53
ssI12
(dp54
ssS'edge'
p55
g25
sS'graph'
p56
(dp57
sS'adjlist_dict_factory'
p58
g22
sS'adj'
p59
g25
sS'pred'
p60
(dp61
I0
(dp62
sI1
(dp63
sI2
(dp64
sI3
(dp65
sI4
(dp66
I0
g27
ssI5
(dp67
I1
g29
ssI6
(dp68
I2
g31
ssI7
(dp69
I3
g33
ssI8
(dp70
I4
g35
sI6
g41
ssI9
(dp71
I4
g36
sI6
g42
ssI10
(dp72
I5
g38
sI7
g44
ssI11
(dp73
I5
g39
sI7
g45
ssI12
(dp74
I8
g47
sI9
g49
sI10
g51
sI11
g53
sssb.